; Function Attrs: mustprogress uwtable
define void @_ZN7Imf_3_214RgbaOutputFileC2ERNS_7OStreamERKNS_6HeaderENS_12RgbaChannelsEi(ptr nocapture noundef nonnull writeonly align 8 dereferenceable(24) %this, ptr noundef nonnull align 8 dereferenceable(40) %os, ptr noundef nonnull align 8 dereferenceable(49) %header, i32 noundef %rgbaChannels, i32 noundef %numThreads) unnamed_addr #3 align 2 personality ptr @__gxx_personality_v0 {
entry:
  %hd = alloca %"class.Imf_3_2::Header", align 8
  store ptr getelementptr inbounds ({ [4 x ptr] }, ptr @_ZTVN7Imf_3_214RgbaOutputFileE, i64 0, i32 0, i64 2), ptr %this, align 8
  %_outputFile = getelementptr inbounds i8, ptr %this, i64 8
  %_toYca = getelementptr inbounds i8, ptr %this, i64 16
  tail call void @llvm.memset.p0.i64(ptr noundef nonnull align 8 dereferenceable(16) %_outputFile, i8 0, i64 16, i1 false)
  call void @_ZN7Imf_3_26HeaderC1ERKS0_(ptr noundef nonnull align 8 dereferenceable(49) %hd, ptr noundef nonnull align 8 dereferenceable(49) %header)
  invoke fastcc void @_ZN7Imf_3_212_GLOBAL__N_114insertChannelsERNS_6HeaderENS_12RgbaChannelsE(ptr noundef nonnull align 8 dereferenceable(49) %hd, i32 noundef %rgbaChannels)
          to label %invoke.cont unwind label %lpad

invoke.cont:                                      ; preds = %entry
  %call = invoke noalias noundef nonnull dereferenceable(16) ptr @_Znwm(i64 noundef 16) #23
          to label %invoke.cont2 unwind label %lpad

invoke.cont2:                                     ; preds = %invoke.cont
  invoke void @_ZN7Imf_3_210OutputFileC1ERNS_7OStreamERKNS_6HeaderEi(ptr noundef nonnull align 8 dereferenceable(16) %call, ptr noundef nonnull align 8 dereferenceable(40) %os, ptr noundef nonnull align 8 dereferenceable(49) %hd, i32 noundef %numThreads)
          to label %invoke.cont4 unwind label %lpad3

invoke.cont4:                                     ; preds = %invoke.cont2
  store ptr %call, ptr %_outputFile, align 8
  %and = and i32 %rgbaChannels, 48
  %tobool.not = icmp eq i32 %and, 0
  br i1 %tobool.not, label %if.end, label %if.then

if.then:                                          ; preds = %invoke.cont4
  %call7 = invoke noalias noundef nonnull dereferenceable(352) ptr @_Znwm(i64 noundef 352) #23
          to label %invoke.cont6 unwind label %lpad

invoke.cont6:                                     ; preds = %if.then
  invoke void @_ZN7Imf_3_214RgbaOutputFile5ToYcaC2ERNS_10OutputFileENS_12RgbaChannelsE(ptr noundef nonnull align 8 dereferenceable(352) %call7, ptr noundef nonnull align 8 dereferenceable(16) %call, i32 noundef %rgbaChannels)
          to label %invoke.cont10 unwind label %lpad9

invoke.cont10:                                    ; preds = %invoke.cont6
  store ptr %call7, ptr %_toYca, align 8
  br label %if.end

lpad:                                             ; preds = %if.then, %invoke.cont, %entry
  %0 = landingpad { ptr, i32 }
          cleanup
  br label %ehcleanup

lpad3:                                            ; preds = %invoke.cont2
  %1 = landingpad { ptr, i32 }
          cleanup
  call void @_ZdlPv(ptr noundef nonnull %call) #24
  br label %ehcleanup

lpad9:                                            ; preds = %invoke.cont6
  %2 = landingpad { ptr, i32 }
          cleanup
  call void @_ZdlPv(ptr noundef nonnull %call7) #24
  br label %ehcleanup

if.end:                                           ; preds = %invoke.cont10, %invoke.cont4
  call void @_ZN7Imf_3_26HeaderD1Ev(ptr noundef nonnull align 8 dereferenceable(49) %hd) #25
  ret void

ehcleanup:                                        ; preds = %lpad9, %lpad3, %lpad
  %.pn = phi { ptr, i32 } [ %2, %lpad9 ], [ %0, %lpad ], [ %1, %lpad3 ]
  call void @_ZN7Imf_3_26HeaderD1Ev(ptr noundef nonnull align 8 dereferenceable(49) %hd) #25
  resume { ptr, i32 } %.pn
}